target datalayout = "e-m:e-p270:32:32-p271:32:32-p272:64:64-i64:64-i128:128-f80:128-n8:16:32:64-S128"
target triple = "x86_64-unknown-linux-gnu"

%"class.base::internal::JSONParser" = type <{ i32, [4 x i8], ptr, ptr, ptr, i32, i32, i32, i32, i32, i32, i32, [4 x i8] }>
%"class.std::unique_ptr" = type { %"struct.std::__uniq_ptr_data" }
%"struct.std::__uniq_ptr_data" = type { %"class.std::__uniq_ptr_impl" }
%"class.std::__uniq_ptr_impl" = type { %"class.std::tuple" }
%"class.std::tuple" = type { %"struct.std::_Tuple_impl" }
%"struct.std::_Tuple_impl" = type { %"struct.std::_Head_base.1" }
%"struct.std::_Head_base.1" = type { ptr }

; Function Attrs: mustprogress nounwind uwtable
define linkonce_odr dso_local void @_ZNSt10_Head_baseILm1ESt14default_deleteIN4base5ValueEELb1EEC2Ev(ptr noundef nonnull align 1 dereferenceable(1) %this) unnamed_addr #0 comdat align 2 {
entry:
  %this.addr = alloca ptr, align 8
  store ptr %this, ptr %this.addr, align 8
  ret void
}

; Function Attrs: mustprogress nounwind uwtable
define linkonce_odr dso_local void @_ZNSt10_Head_baseILm0EPN4base5ValueELb0EEC2Ev(ptr noundef nonnull align 8 dereferenceable(8) %this) unnamed_addr #0 comdat align 2 {
entry:
  %this.addr = alloca ptr, align 8
  store ptr %this, ptr %this.addr, align 8
  %this1 = load ptr, ptr %this.addr, align 8
  %_M_head_impl = getelementptr inbounds %"struct.std::_Head_base.1", ptr %this1, i32 0, i32 0
  store ptr null, ptr %_M_head_impl, align 8
  ret void
}

; Function Attrs: mustprogress uwtable
define linkonce_odr dso_local void @_ZNSt11_Tuple_implILm1EJSt14default_deleteIN4base5ValueEEEEC2Ev(ptr noundef nonnull align 1 dereferenceable(1) %this) unnamed_addr #1 comdat align 2 {
entry:
  %this.addr = alloca ptr, align 8
  store ptr %this, ptr %this.addr, align 8
  %this1 = load ptr, ptr %this.addr, align 8
  call void @_ZNSt10_Head_baseILm1ESt14default_deleteIN4base5ValueEELb1EEC2Ev(ptr noundef nonnull align 1 dereferenceable(1) %this1)
  ret void
}

; Function Attrs: noreturn nounwind uwtable
define linkonce_odr hidden void @__clang_call_terminate(ptr noundef %0) #9 comdat {
  %2 = call ptr @__cxa_begin_catch(ptr %0) #11
  call void @_ZSt9terminatev() #14
  unreachable
}

; Function Attrs: mustprogress uwtable
define linkonce_odr dso_local void @_ZNSt11_Tuple_implILm0EJPN4base5ValueESt14default_deleteIS1_EEEC2Ev(ptr noundef nonnull align 8 dereferenceable(8) %this) unnamed_addr #1 comdat align 2 {
entry:
  %this.addr = alloca ptr, align 8
  store ptr %this, ptr %this.addr, align 8
  %this1 = load ptr, ptr %this.addr, align 8
  call void @_ZNSt11_Tuple_implILm1EJSt14default_deleteIN4base5ValueEEEEC2Ev(ptr noundef nonnull align 1 dereferenceable(1) %this1)
  call void @_ZNSt10_Head_baseILm0EPN4base5ValueELb0EEC2Ev(ptr noundef nonnull align 8 dereferenceable(8) %this1)
  ret void
}

; Function Attrs: mustprogress nounwind uwtable
define linkonce_odr dso_local void @_ZNSt5tupleIJPN4base5ValueESt14default_deleteIS1_EEEC2ILb1ETnNSt9enable_ifIXclsr17_TupleConstraintsIXT_ES2_S4_EE37__is_implicitly_default_constructibleEEbE4typeELb1EEEv(ptr noundef nonnull align 8 dereferenceable(8) %this) unnamed_addr #0 comdat align 2 personality ptr @__gxx_personality_v0 {
entry:
  %this.addr = alloca ptr, align 8
  store ptr %this, ptr %this.addr, align 8
  %this1 = load ptr, ptr %this.addr, align 8
  invoke void @_ZNSt11_Tuple_implILm0EJPN4base5ValueESt14default_deleteIS1_EEEC2Ev(ptr noundef nonnull align 8 dereferenceable(8) %this1)
          to label %invoke.cont unwind label %terminate.lpad

invoke.cont:                                      ; preds = %entry
  ret void

terminate.lpad:                                   ; preds = %entry
  %0 = landingpad { ptr, i32 }
          catch ptr null
  %1 = extractvalue { ptr, i32 } %0, 0
  call void @__clang_call_terminate(ptr %1) #14
  unreachable
}

; Function Attrs: mustprogress nounwind uwtable
define linkonce_odr dso_local void @_ZNSt15__uniq_ptr_implIN4base5ValueESt14default_deleteIS1_EEC2Ev(ptr noundef nonnull align 8 dereferenceable(8) %this) unnamed_addr #0 comdat align 2 {
entry:
  %this.addr = alloca ptr, align 8
  store ptr %this, ptr %this.addr, align 8
  %this1 = load ptr, ptr %this.addr, align 8
  %_M_t = getelementptr inbounds %"class.std::__uniq_ptr_impl", ptr %this1, i32 0, i32 0
  call void @_ZNSt5tupleIJPN4base5ValueESt14default_deleteIS1_EEEC2ILb1ETnNSt9enable_ifIXclsr17_TupleConstraintsIXT_ES2_S4_EE37__is_implicitly_default_constructibleEEbE4typeELb1EEEv(ptr noundef nonnull align 8 dereferenceable(8) %_M_t) #11
  ret void
}

; Function Attrs: mustprogress nounwind uwtable
define linkonce_odr dso_local void @_ZNSt15__uniq_ptr_dataIN4base5ValueESt14default_deleteIS1_ELb1ELb1EEC2Ev(ptr noundef nonnull align 8 dereferenceable(8) %this) unnamed_addr #0 comdat align 2 {
entry:
  %this.addr = alloca ptr, align 8
  store ptr %this, ptr %this.addr, align 8
  %this1 = load ptr, ptr %this.addr, align 8
  call void @_ZNSt15__uniq_ptr_implIN4base5ValueESt14default_deleteIS1_EEC2Ev(ptr noundef nonnull align 8 dereferenceable(8) %this1) #11
  ret void
}

; Function Attrs: mustprogress nounwind uwtable
define linkonce_odr dso_local void @_ZNSt10unique_ptrIN4base5ValueESt14default_deleteIS1_EEC2IS3_vEEDn(ptr noundef nonnull align 8 dereferenceable(8) %this, ptr %0) unnamed_addr #0 comdat align 2 {
entry:
  %this.addr = alloca ptr, align 8
  %.addr = alloca ptr, align 8
  store ptr %this, ptr %this.addr, align 8
  store ptr %0, ptr %.addr, align 8
  %this1 = load ptr, ptr %this.addr, align 8
  %_M_t = getelementptr inbounds %"class.std::unique_ptr", ptr %this1, i32 0, i32 0
  call void @llvm.memset.p0.i64(ptr align 8 %_M_t, i8 0, i64 8, i1 false)
  call void @_ZNSt15__uniq_ptr_dataIN4base5ValueESt14default_deleteIS1_ELb1ELb1EEC2Ev(ptr noundef nonnull align 8 dereferenceable(8) %_M_t) #11
  ret void
}

; Function Attrs: mustprogress nounwind uwtable
define dso_local void @_ZN4base8internal10JSONParser11ReportErrorENS_10JSONReader14JsonParseErrorEi(ptr noundef nonnull align 8 dereferenceable(60) %this, i32 noundef %code, i32 noundef %column_adjust) #0 align 2 {
entry:
  %this.addr = alloca ptr, align 8
  %code.addr = alloca i32, align 4
  %column_adjust.addr = alloca i32, align 4
  store ptr %this, ptr %this.addr, align 8
  store i32 %code, ptr %code.addr, align 4
  store i32 %column_adjust, ptr %column_adjust.addr, align 4
  %this1 = load ptr, ptr %this.addr, align 8
  %0 = load i32, ptr %code.addr, align 4
  %error_code_ = getelementptr inbounds %"class.base::internal::JSONParser", ptr %this1, i32 0, i32 9
  store i32 %0, ptr %error_code_, align 8
  %line_number_ = getelementptr inbounds %"class.base::internal::JSONParser", ptr %this1, i32 0, i32 7
  %1 = load i32, ptr %line_number_, align 8
  %error_line_ = getelementptr inbounds %"class.base::internal::JSONParser", ptr %this1, i32 0, i32 10
  store i32 %1, ptr %error_line_, align 4
  %index_ = getelementptr inbounds %"class.base::internal::JSONParser", ptr %this1, i32 0, i32 5
  %2 = load i32, ptr %index_, align 8
  %index_last_line_ = getelementptr inbounds %"class.base::internal::JSONParser", ptr %this1, i32 0, i32 8
  %3 = load i32, ptr %index_last_line_, align 4
  %sub = sub nsw i32 %2, %3
  %4 = load i32, ptr %column_adjust.addr, align 4
  %add = add nsw i32 %sub, %4
  %error_column_ = getelementptr inbounds %"class.base::internal::JSONParser", ptr %this1, i32 0, i32 11
  store i32 %add, ptr %error_column_, align 8
  ret void
}

; Function Attrs: mustprogress uwtable
define dso_local void @_ZN4base8internal10JSONParser10ParseTokenENS1_5TokenE(ptr noalias sret(%"class.std::unique_ptr") align 8 %agg.result, ptr noundef nonnull align 8 dereferenceable(60) %this, i32 noundef %token) #1 align 2 {
entry:
  %result.ptr = alloca ptr, align 8
  %this.addr = alloca ptr, align 8
  %token.addr = alloca i32, align 4
  store ptr %agg.result, ptr %result.ptr, align 8
  store ptr %this, ptr %this.addr, align 8
  store i32 %token, ptr %token.addr, align 4
  %this1 = load ptr, ptr %this.addr, align 8
  %0 = load i32, ptr %token.addr, align 4
  switch i32 %0, label %sw.default [
    i32 0, label %sw.bb
    i32 2, label %sw.bb2
    i32 4, label %sw.bb3
    i32 5, label %sw.bb4
    i32 6, label %sw.bb5
    i32 7, label %sw.bb5
    i32 8, label %sw.bb5
  ]

sw.bb:                                            ; preds = %entry
  call void @_ZN4base8internal10JSONParser17ConsumeDictionaryEv(ptr sret(%"class.std::unique_ptr") align 8 %agg.result, ptr noundef nonnull align 8 dereferenceable(60) %this1)
  br label %return

sw.bb2:                                           ; preds = %entry
  call void @_ZN4base8internal10JSONParser11ConsumeListEv(ptr sret(%"class.std::unique_ptr") align 8 %agg.result, ptr noundef nonnull align 8 dereferenceable(60) %this1)
  br label %return

sw.bb3:                                           ; preds = %entry
  call void @_ZN4base8internal10JSONParser13ConsumeStringEv(ptr sret(%"class.std::unique_ptr") align 8 %agg.result, ptr noundef nonnull align 8 dereferenceable(60) %this1)
  br label %return

sw.bb4:                                           ; preds = %entry
  call void @_ZN4base8internal10JSONParser13ConsumeNumberEv(ptr sret(%"class.std::unique_ptr") align 8 %agg.result, ptr noundef nonnull align 8 dereferenceable(60) %this1)
  br label %return

sw.bb5:                                           ; preds = %entry, %entry, %entry
  call void @_ZN4base8internal10JSONParser14ConsumeLiteralEv(ptr sret(%"class.std::unique_ptr") align 8 %agg.result, ptr noundef nonnull align 8 dereferenceable(60) %this1)
  br label %return

sw.default:                                       ; preds = %entry
  call void @_ZN4base8internal10JSONParser11ReportErrorENS_10JSONReader14JsonParseErrorEi(ptr noundef nonnull align 8 dereferenceable(60) %this1, i32 noundef 3, i32 noundef 1)
  call void @_ZNSt10unique_ptrIN4base5ValueESt14default_deleteIS1_EEC2IS3_vEEDn(ptr noundef nonnull align 8 dereferenceable(8) %agg.result, ptr null) #11
  br label %return

return:                                           ; preds = %sw.default, %sw.bb5, %sw.bb4, %sw.bb3, %sw.bb2, %sw.bb
  ret void
}