; Function Attrs: mustprogress uwtable
define dso_local void @_ZN4base8internal10JSONParser10ParseTokenENS1_5TokenE(ptr noalias sret(%"class.std::unique_ptr") align 8 %agg.result, ptr noundef nonnull align 8 dereferenceable(60) %this, i32 noundef %token) local_unnamed_addr #2 align 2 personality ptr @__gxx_personality_v0 {
entry:
  switch i32 %token, label %sw.default [
    i32 0, label %sw.bb
    i32 2, label %sw.bb2
    i32 4, label %sw.bb3
    i32 5, label %sw.bb4
    i32 6, label %sw.bb5
    i32 7, label %sw.bb5
    i32 8, label %sw.bb5
  ]

sw.bb:                                            ; preds = %entry
  tail call void @_ZN4base8internal10JSONParser17ConsumeDictionaryEv(ptr sret(%"class.std::unique_ptr") align 8 %agg.result, ptr noundef nonnull align 8 dereferenceable(60) %this)
  br label %return

sw.bb2:                                           ; preds = %entry
  tail call void @_ZN4base8internal10JSONParser11ConsumeListEv(ptr sret(%"class.std::unique_ptr") align 8 %agg.result, ptr noundef nonnull align 8 dereferenceable(60) %this)
  br label %return

sw.bb3:                                           ; preds = %entry
  tail call void @_ZN4base8internal10JSONParser13ConsumeStringEv(ptr sret(%"class.std::unique_ptr") align 8 %agg.result, ptr noundef nonnull align 8 dereferenceable(60) %this)
  br label %return

sw.bb4:                                           ; preds = %entry
  tail call void @_ZN4base8internal10JSONParser13ConsumeNumberEv(ptr sret(%"class.std::unique_ptr") align 8 %agg.result, ptr noundef nonnull align 8 dereferenceable(60) %this)
  br label %return

sw.bb5:                                           ; preds = %entry, %entry, %entry
  tail call void @_ZN4base8internal10JSONParser14ConsumeLiteralEv(ptr sret(%"class.std::unique_ptr") align 8 %agg.result, ptr noundef nonnull align 8 dereferenceable(60) %this)
  br label %return

sw.default:                                       ; preds = %entry
  %error_code_.i = getelementptr inbounds i8, ptr %this, i64 48
  store i32 3, ptr %error_code_.i, align 8
  %line_number_.i = getelementptr inbounds i8, ptr %this, i64 40
  %0 = load i32, ptr %line_number_.i, align 8
  %error_line_.i = getelementptr inbounds i8, ptr %this, i64 52
  store i32 %0, ptr %error_line_.i, align 4
  %index_.i = getelementptr inbounds i8, ptr %this, i64 32
  %1 = load i32, ptr %index_.i, align 8
  %index_last_line_.i = getelementptr inbounds i8, ptr %this, i64 44
  %2 = load i32, ptr %index_last_line_.i, align 4
  %sub.i = add i32 %1, 1
  %add.i = sub i32 %sub.i, %2
  %error_column_.i = getelementptr inbounds i8, ptr %this, i64 56
  store i32 %add.i, ptr %error_column_.i, align 8
  store ptr null, ptr %agg.result, align 8
  br label %return

return:                                           ; preds = %sw.default, %sw.bb5, %sw.bb4, %sw.bb3, %sw.bb2, %sw.bb
  ret void
}